target datalayout = "e-m:e-p270:32:32-p271:32:32-p272:64:64-i64:64-i128:128-f80:128-n8:16:32:64-S128"
target triple = "x86_64-pc-linux-gnu"

%"class.icu_77::number::impl::DecimalQuantity" = type <{ %"class.icu_77::IFixedDecimal", i8, [3 x i8], i32, i32, i8, i8, [2 x i8], double, i32, i32, i32, i32, %union.anon, i8, i8, [6 x i8] }>
%"class.icu_77::IFixedDecimal" = type { ptr }
%union.anon = type { %struct.anon }
%struct.anon = type { ptr, i32 }

; Function Attrs: mustprogress uwtable
define void @_ZN6icu_776number4impl15DecimalQuantity12setBcdToZeroEv(ptr noundef nonnull align 8 dereferenceable(66) %0) #1 align 2 {
  %2 = alloca ptr, align 8
  store ptr %0, ptr %2, align 8, !tbaa !25
  %3 = load ptr, ptr %2, align 8
  %4 = getelementptr inbounds nuw %"class.icu_77::number::impl::DecimalQuantity", ptr %3, i32 0, i32 14
  %5 = load i8, ptr %4, align 8, !tbaa !37, !range !40, !noundef !41
  %6 = trunc i8 %5 to i1
  br i1 %6, label %7, label %14

7:                                                ; preds = %1
  %8 = getelementptr inbounds nuw %"class.icu_77::number::impl::DecimalQuantity", ptr %3, i32 0, i32 13
  %9 = getelementptr inbounds nuw %struct.anon, ptr %8, i32 0, i32 0
  %10 = load ptr, ptr %9, align 8, !tbaa !42
  call void @uprv_free_77(ptr noundef %10)
  %11 = getelementptr inbounds nuw %"class.icu_77::number::impl::DecimalQuantity", ptr %3, i32 0, i32 13
  %12 = getelementptr inbounds nuw %struct.anon, ptr %11, i32 0, i32 0
  store ptr null, ptr %12, align 8, !tbaa !42
  %13 = getelementptr inbounds nuw %"class.icu_77::number::impl::DecimalQuantity", ptr %3, i32 0, i32 14
  store i8 0, ptr %13, align 8, !tbaa !37
  br label %14

14:                                               ; preds = %7, %1
  %15 = getelementptr inbounds nuw %"class.icu_77::number::impl::DecimalQuantity", ptr %3, i32 0, i32 13
  store i64 0, ptr %15, align 8, !tbaa !42
  %16 = getelementptr inbounds nuw %"class.icu_77::number::impl::DecimalQuantity", ptr %3, i32 0, i32 3
  store i32 0, ptr %16, align 4, !tbaa !43
  %17 = getelementptr inbounds nuw %"class.icu_77::number::impl::DecimalQuantity", ptr %3, i32 0, i32 4
  store i32 0, ptr %17, align 8, !tbaa !44
  %18 = getelementptr inbounds nuw %"class.icu_77::number::impl::DecimalQuantity", ptr %3, i32 0, i32 6
  store i8 0, ptr %18, align 1, !tbaa !45
  %19 = getelementptr inbounds nuw %"class.icu_77::number::impl::DecimalQuantity", ptr %3, i32 0, i32 8
  store double 0.000000e+00, ptr %19, align 8, !tbaa !46
  %20 = getelementptr inbounds nuw %"class.icu_77::number::impl::DecimalQuantity", ptr %3, i32 0, i32 9
  store i32 0, ptr %20, align 8, !tbaa !47
  %21 = getelementptr inbounds nuw %"class.icu_77::number::impl::DecimalQuantity", ptr %3, i32 0, i32 12
  store i32 0, ptr %21, align 4, !tbaa !36
  ret void
}

; Function Attrs: mustprogress nounwind uwtable
define void @_ZN6icu_776number4impl15DecimalQuantity14copyFieldsFromERKS2_(ptr noundef nonnull align 8 dereferenceable(66) %0, ptr noundef nonnull align 8 dereferenceable(66) %1) #0 align 2 {
  %3 = alloca ptr, align 8
  %4 = alloca ptr, align 8
  store ptr %0, ptr %3, align 8, !tbaa !25
  store ptr %1, ptr %4, align 8, !tbaa !25
  %5 = load ptr, ptr %3, align 8
  %6 = load ptr, ptr %4, align 8, !tbaa !25
  %7 = getelementptr inbounds nuw %"class.icu_77::number::impl::DecimalQuantity", ptr %6, i32 0, i32 1
  %8 = load i8, ptr %7, align 8, !tbaa !29, !range !40, !noundef !41
  %9 = trunc i8 %8 to i1
  %10 = getelementptr inbounds nuw %"class.icu_77::number::impl::DecimalQuantity", ptr %5, i32 0, i32 1
  %11 = zext i1 %9 to i8
  store i8 %11, ptr %10, align 8, !tbaa !29
  %12 = load ptr, ptr %4, align 8, !tbaa !25
  %13 = getelementptr inbounds nuw %"class.icu_77::number::impl::DecimalQuantity", ptr %12, i32 0, i32 10
  %14 = load i32, ptr %13, align 4, !tbaa !34
  %15 = getelementptr inbounds nuw %"class.icu_77::number::impl::DecimalQuantity", ptr %5, i32 0, i32 10
  store i32 %14, ptr %15, align 4, !tbaa !34
  %16 = load ptr, ptr %4, align 8, !tbaa !25
  %17 = getelementptr inbounds nuw %"class.icu_77::number::impl::DecimalQuantity", ptr %16, i32 0, i32 11
  %18 = load i32, ptr %17, align 8, !tbaa !35
  %19 = getelementptr inbounds nuw %"class.icu_77::number::impl::DecimalQuantity", ptr %5, i32 0, i32 11
  store i32 %18, ptr %19, align 8, !tbaa !35
  %20 = load ptr, ptr %4, align 8, !tbaa !25
  %21 = getelementptr inbounds nuw %"class.icu_77::number::impl::DecimalQuantity", ptr %20, i32 0, i32 3
  %22 = load i32, ptr %21, align 4, !tbaa !43
  %23 = getelementptr inbounds nuw %"class.icu_77::number::impl::DecimalQuantity", ptr %5, i32 0, i32 3
  store i32 %22, ptr %23, align 4, !tbaa !43
  %24 = load ptr, ptr %4, align 8, !tbaa !25
  %25 = getelementptr inbounds nuw %"class.icu_77::number::impl::DecimalQuantity", ptr %24, i32 0, i32 4
  %26 = load i32, ptr %25, align 8, !tbaa !44
  %27 = getelementptr inbounds nuw %"class.icu_77::number::impl::DecimalQuantity", ptr %5, i32 0, i32 4
  store i32 %26, ptr %27, align 8, !tbaa !44
  %28 = load ptr, ptr %4, align 8, !tbaa !25
  %29 = getelementptr inbounds nuw %"class.icu_77::number::impl::DecimalQuantity", ptr %28, i32 0, i32 5
  %30 = load i8, ptr %29, align 4, !tbaa !39
  %31 = getelementptr inbounds nuw %"class.icu_77::number::impl::DecimalQuantity", ptr %5, i32 0, i32 5
  store i8 %30, ptr %31, align 4, !tbaa !39
  %32 = load ptr, ptr %4, align 8, !tbaa !25
  %33 = getelementptr inbounds nuw %"class.icu_77::number::impl::DecimalQuantity", ptr %32, i32 0, i32 8
  %34 = load double, ptr %33, align 8, !tbaa !46
  %35 = getelementptr inbounds nuw %"class.icu_77::number::impl::DecimalQuantity", ptr %5, i32 0, i32 8
  store double %34, ptr %35, align 8, !tbaa !46
  %36 = load ptr, ptr %4, align 8, !tbaa !25
  %37 = getelementptr inbounds nuw %"class.icu_77::number::impl::DecimalQuantity", ptr %36, i32 0, i32 9
  %38 = load i32, ptr %37, align 8, !tbaa !47
  %39 = getelementptr inbounds nuw %"class.icu_77::number::impl::DecimalQuantity", ptr %5, i32 0, i32 9
  store i32 %38, ptr %39, align 8, !tbaa !47
  %40 = load ptr, ptr %4, align 8, !tbaa !25
  %41 = getelementptr inbounds nuw %"class.icu_77::number::impl::DecimalQuantity", ptr %40, i32 0, i32 6
  %42 = load i8, ptr %41, align 1, !tbaa !45
  %43 = getelementptr inbounds nuw %"class.icu_77::number::impl::DecimalQuantity", ptr %5, i32 0, i32 6
  store i8 %42, ptr %43, align 1, !tbaa !45
  %44 = load ptr, ptr %4, align 8, !tbaa !25
  %45 = getelementptr inbounds nuw %"class.icu_77::number::impl::DecimalQuantity", ptr %44, i32 0, i32 12
  %46 = load i32, ptr %45, align 4, !tbaa !36
  %47 = getelementptr inbounds nuw %"class.icu_77::number::impl::DecimalQuantity", ptr %5, i32 0, i32 12
  store i32 %46, ptr %47, align 4, !tbaa !36
  ret void
}

; Function Attrs: mustprogress uwtable
define void @_ZN6icu_776number4impl15DecimalQuantity11moveBcdFromERS2_(ptr noundef nonnull align 8 dereferenceable(66) %0, ptr noundef nonnull align 8 dereferenceable(66) %1) #1 align 2 {
  %3 = alloca ptr, align 8
  %4 = alloca ptr, align 8
  store ptr %0, ptr %3, align 8, !tbaa !25
  store ptr %1, ptr %4, align 8, !tbaa !25
  %5 = load ptr, ptr %3, align 8
  call void @_ZN6icu_776number4impl15DecimalQuantity12setBcdToZeroEv(ptr noundef nonnull align 8 dereferenceable(66) %5)
  %6 = load ptr, ptr %4, align 8, !tbaa !25
  %7 = getelementptr inbounds nuw %"class.icu_77::number::impl::DecimalQuantity", ptr %6, i32 0, i32 14
  %8 = load i8, ptr %7, align 8, !tbaa !37, !range !40, !noundef !41
  %9 = trunc i8 %8 to i1
  br i1 %9, label %10, label %29

10:                                               ; preds = %2
  %11 = getelementptr inbounds nuw %"class.icu_77::number::impl::DecimalQuantity", ptr %5, i32 0, i32 14
  store i8 1, ptr %11, align 8, !tbaa !37
  %12 = load ptr, ptr %4, align 8, !tbaa !25
  %13 = getelementptr inbounds nuw %"class.icu_77::number::impl::DecimalQuantity", ptr %12, i32 0, i32 13
  %14 = getelementptr inbounds nuw %struct.anon, ptr %13, i32 0, i32 0
  %15 = load ptr, ptr %14, align 8, !tbaa !42
  %16 = getelementptr inbounds nuw %"class.icu_77::number::impl::DecimalQuantity", ptr %5, i32 0, i32 13
  %17 = getelementptr inbounds nuw %struct.anon, ptr %16, i32 0, i32 0
  store ptr %15, ptr %17, align 8, !tbaa !42
  %18 = load ptr, ptr %4, align 8, !tbaa !25
  %19 = getelementptr inbounds nuw %"class.icu_77::number::impl::DecimalQuantity", ptr %18, i32 0, i32 13
  %20 = getelementptr inbounds nuw %struct.anon, ptr %19, i32 0, i32 1
  %21 = load i32, ptr %20, align 8, !tbaa !42
  %22 = getelementptr inbounds nuw %"class.icu_77::number::impl::DecimalQuantity", ptr %5, i32 0, i32 13
  %23 = getelementptr inbounds nuw %struct.anon, ptr %22, i32 0, i32 1
  store i32 %21, ptr %23, align 8, !tbaa !42
  %24 = load ptr, ptr %4, align 8, !tbaa !25
  %25 = getelementptr inbounds nuw %"class.icu_77::number::impl::DecimalQuantity", ptr %24, i32 0, i32 13
  %26 = getelementptr inbounds nuw %struct.anon, ptr %25, i32 0, i32 0
  store ptr null, ptr %26, align 8, !tbaa !42
  %27 = load ptr, ptr %4, align 8, !tbaa !25
  %28 = getelementptr inbounds nuw %"class.icu_77::number::impl::DecimalQuantity", ptr %27, i32 0, i32 14
  store i8 0, ptr %28, align 8, !tbaa !37
  br label %34

29:                                               ; preds = %2
  %30 = load ptr, ptr %4, align 8, !tbaa !25
  %31 = getelementptr inbounds nuw %"class.icu_77::number::impl::DecimalQuantity", ptr %30, i32 0, i32 13
  %32 = load i64, ptr %31, align 8, !tbaa !42
  %33 = getelementptr inbounds nuw %"class.icu_77::number::impl::DecimalQuantity", ptr %5, i32 0, i32 13
  store i64 %32, ptr %33, align 8, !tbaa !42
  br label %34

34:                                               ; preds = %29, %10
  ret void
}

; Function Attrs: mustprogress nounwind uwtable
define noundef nonnull align 8 dereferenceable(66) ptr @_ZN6icu_776number4impl15DecimalQuantityaSEOS2_(ptr noundef nonnull align 8 dereferenceable(66) %0, ptr noundef nonnull align 8 dereferenceable(66) %1) #0 align 2 personality ptr @__gxx_personality_v0 {
  %3 = alloca ptr, align 8
  %4 = alloca ptr, align 8
  %5 = alloca ptr, align 8
  store ptr %0, ptr %4, align 8, !tbaa !25
  store ptr %1, ptr %5, align 8, !tbaa !25
  %6 = load ptr, ptr %4, align 8
  %7 = load ptr, ptr %5, align 8, !tbaa !25
  %8 = icmp eq ptr %6, %7
  br i1 %8, label %9, label %10

9:                                                ; preds = %2
  store ptr %6, ptr %3, align 8
  br label %15

10:                                               ; preds = %2
  %11 = load ptr, ptr %5, align 8, !tbaa !25
  invoke void @_ZN6icu_776number4impl15DecimalQuantity11moveBcdFromERS2_(ptr noundef nonnull align 8 dereferenceable(66) %6, ptr noundef nonnull align 8 dereferenceable(66) %11)
          to label %12 unwind label %17

12:                                               ; preds = %10
  %13 = load ptr, ptr %5, align 8, !tbaa !25
  invoke void @_ZN6icu_776number4impl15DecimalQuantity14copyFieldsFromERKS2_(ptr noundef nonnull align 8 dereferenceable(66) %6, ptr noundef nonnull align 8 dereferenceable(66) %13)
          to label %14 unwind label %17

14:                                               ; preds = %12
  store ptr %6, ptr %3, align 8
  br label %15

15:                                               ; preds = %14, %9
  %16 = load ptr, ptr %3, align 8
  ret ptr %16

17:                                               ; preds = %12, %10
  %18 = landingpad { ptr, i32 }
          catch ptr null
  %19 = extractvalue { ptr, i32 } %18, 0
  call void @__clang_call_terminate(ptr %19) #16
  unreachable
}