; Function Attrs: mustprogress nounwind uwtable
define noundef nonnull align 8 dereferenceable(66) ptr @_ZN6icu_776number4impl15DecimalQuantityaSEOS2_(ptr noundef nonnull returned align 8 dereferenceable(66) %0, ptr noundef nonnull align 8 dereferenceable(66) %1) local_unnamed_addr #0 align 2 personality ptr @__gxx_personality_v0 {
  %3 = icmp eq ptr %0, %1
  br i1 %3, label %54, label %4

4:                                                ; preds = %2
  %5 = getelementptr inbounds nuw i8, ptr %0, i64 64
  %6 = load i8, ptr %5, align 8, !tbaa !22, !range !24, !noundef !25
  %7 = trunc nuw i8 %6 to i1
  br i1 %7, label %8, label %_ZN6icu_776number4impl15DecimalQuantity12setBcdToZeroEv.exit.i

8:                                                ; preds = %4
  %9 = getelementptr inbounds nuw i8, ptr %0, i64 48
  %10 = load ptr, ptr %9, align 8, !tbaa !26
  invoke void @uprv_free_77(ptr noundef %10)
          to label %.noexc unwind label %55

.noexc:                                           ; preds = %8
  store i8 0, ptr %5, align 8, !tbaa !22
  br label %_ZN6icu_776number4impl15DecimalQuantity12setBcdToZeroEv.exit.i

_ZN6icu_776number4impl15DecimalQuantity12setBcdToZeroEv.exit.i: ; preds = %.noexc, %4
  %11 = getelementptr inbounds nuw i8, ptr %0, i64 48
  store i64 0, ptr %11, align 8, !tbaa !26
  %12 = getelementptr inbounds nuw i8, ptr %0, i64 12
  store i32 0, ptr %12, align 4, !tbaa !27
  %13 = getelementptr inbounds nuw i8, ptr %0, i64 16
  store i32 0, ptr %13, align 8, !tbaa !28
  %14 = getelementptr inbounds nuw i8, ptr %0, i64 21
  store i8 0, ptr %14, align 1, !tbaa !29
  %15 = getelementptr inbounds nuw i8, ptr %0, i64 24
  store double 0.000000e+00, ptr %15, align 8, !tbaa !30
  %16 = getelementptr inbounds nuw i8, ptr %0, i64 32
  store i32 0, ptr %16, align 8, !tbaa !31
  %17 = getelementptr inbounds nuw i8, ptr %0, i64 44
  store i32 0, ptr %17, align 4, !tbaa !32
  %18 = getelementptr inbounds nuw i8, ptr %1, i64 64
  %19 = load i8, ptr %18, align 8, !tbaa !22, !range !24, !noundef !25
  %20 = trunc nuw i8 %19 to i1
  br i1 %20, label %21, label %27

21:                                               ; preds = %_ZN6icu_776number4impl15DecimalQuantity12setBcdToZeroEv.exit.i
  store i8 1, ptr %5, align 8, !tbaa !22
  %22 = getelementptr inbounds nuw i8, ptr %1, i64 48
  %23 = load ptr, ptr %22, align 8, !tbaa !26
  store ptr %23, ptr %11, align 8, !tbaa !26
  %24 = getelementptr inbounds nuw i8, ptr %1, i64 56
  %25 = load i32, ptr %24, align 8, !tbaa !26
  %26 = getelementptr inbounds nuw i8, ptr %0, i64 56
  store i32 %25, ptr %26, align 8, !tbaa !26
  store ptr null, ptr %22, align 8, !tbaa !26
  store i8 0, ptr %18, align 8, !tbaa !22
  br label %_ZN6icu_776number4impl15DecimalQuantity11moveBcdFromERS2_.exit

27:                                               ; preds = %_ZN6icu_776number4impl15DecimalQuantity12setBcdToZeroEv.exit.i
  %28 = getelementptr inbounds nuw i8, ptr %1, i64 48
  %29 = load i64, ptr %28, align 8, !tbaa !26
  store i64 %29, ptr %11, align 8, !tbaa !26
  br label %_ZN6icu_776number4impl15DecimalQuantity11moveBcdFromERS2_.exit

_ZN6icu_776number4impl15DecimalQuantity11moveBcdFromERS2_.exit: ; preds = %27, %21
  %30 = getelementptr inbounds nuw i8, ptr %1, i64 8
  %31 = load i8, ptr %30, align 8, !tbaa !17, !range !24, !noundef !25
  %32 = getelementptr inbounds nuw i8, ptr %0, i64 8
  store i8 %31, ptr %32, align 8, !tbaa !17
  %33 = getelementptr inbounds nuw i8, ptr %1, i64 36
  %34 = load i32, ptr %33, align 4, !tbaa !33
  %35 = getelementptr inbounds nuw i8, ptr %0, i64 36
  store i32 %34, ptr %35, align 4, !tbaa !33
  %36 = getelementptr inbounds nuw i8, ptr %1, i64 40
  %37 = load i32, ptr %36, align 8, !tbaa !34
  %38 = getelementptr inbounds nuw i8, ptr %0, i64 40
  store i32 %37, ptr %38, align 8, !tbaa !34
  %39 = getelementptr inbounds nuw i8, ptr %1, i64 12
  %40 = load i32, ptr %39, align 4, !tbaa !27
  store i32 %40, ptr %12, align 4, !tbaa !27
  %41 = getelementptr inbounds nuw i8, ptr %1, i64 16
  %42 = load i32, ptr %41, align 8, !tbaa !28
  store i32 %42, ptr %13, align 8, !tbaa !28
  %43 = getelementptr inbounds nuw i8, ptr %1, i64 20
  %44 = load i8, ptr %43, align 4, !tbaa !35
  %45 = getelementptr inbounds nuw i8, ptr %0, i64 20
  store i8 %44, ptr %45, align 4, !tbaa !35
  %46 = getelementptr inbounds nuw i8, ptr %1, i64 24
  %47 = load double, ptr %46, align 8, !tbaa !30
  store double %47, ptr %15, align 8, !tbaa !30
  %48 = getelementptr inbounds nuw i8, ptr %1, i64 32
  %49 = load i32, ptr %48, align 8, !tbaa !31
  store i32 %49, ptr %16, align 8, !tbaa !31
  %50 = getelementptr inbounds nuw i8, ptr %1, i64 21
  %51 = load i8, ptr %50, align 1, !tbaa !29
  store i8 %51, ptr %14, align 1, !tbaa !29
  %52 = getelementptr inbounds nuw i8, ptr %1, i64 44
  %53 = load i32, ptr %52, align 4, !tbaa !32
  store i32 %53, ptr %17, align 4, !tbaa !32
  br label %54

54:                                               ; preds = %2, %_ZN6icu_776number4impl15DecimalQuantity11moveBcdFromERS2_.exit
  ret ptr %0

55:                                               ; preds = %8
  %56 = landingpad { ptr, i32 }
          catch ptr null
  %57 = extractvalue { ptr, i32 } %56, 0
  tail call void @__clang_call_terminate(ptr %57) #28
  unreachable
}